; Function Attrs: mustprogress uwtable
define noundef nonnull align 8 dereferenceable(16) ptr @_ZN6icu_776number4impl14SymbolsWrapperaSERKS2_(ptr noundef nonnull returned align 8 dereferenceable(16) %0, ptr noundef nonnull readonly align 8 dereferenceable(16) %1) local_unnamed_addr #1 align 2 {
  %3 = icmp eq ptr %0, %1
  br i1 %3, label %17, label %4

4:                                                ; preds = %2
  %5 = load i32, ptr %0, align 8, !tbaa !15
  switch i32 %5, label %_ZN6icu_776number4impl14SymbolsWrapper9doCleanupEv.exit [
    i32 2, label %10
    i32 1, label %6
  ]

6:                                                ; preds = %4
  %7 = getelementptr inbounds nuw i8, ptr %0, i64 8
  %8 = load ptr, ptr %7, align 8, !tbaa !18
  %9 = icmp eq ptr %8, null
  br i1 %9, label %_ZN6icu_776number4impl14SymbolsWrapper9doCleanupEv.exit, label %.sink.split.i

10:                                               ; preds = %4
  %11 = getelementptr inbounds nuw i8, ptr %0, i64 8
  %12 = load ptr, ptr %11, align 8, !tbaa !18
  %13 = icmp eq ptr %12, null
  br i1 %13, label %_ZN6icu_776number4impl14SymbolsWrapper9doCleanupEv.exit, label %.sink.split.i

.sink.split.i:                                    ; preds = %10, %6
  %.sink5.i = phi ptr [ %8, %6 ], [ %12, %10 ]
  %14 = load ptr, ptr %.sink5.i, align 8, !tbaa !19
  %15 = getelementptr inbounds nuw i8, ptr %14, i64 8
  %16 = load ptr, ptr %15, align 8
  tail call void %16(ptr noundef nonnull align 8 dereferenceable(86) %.sink5.i) #13
  br label %_ZN6icu_776number4impl14SymbolsWrapper9doCleanupEv.exit

_ZN6icu_776number4impl14SymbolsWrapper9doCleanupEv.exit: ; preds = %4, %6, %10, %.sink.split.i
  tail call void @_ZN6icu_776number4impl14SymbolsWrapper10doCopyFromERKS2_(ptr noundef nonnull align 8 dereferenceable(16) %0, ptr noundef nonnull align 8 dereferenceable(16) %1)
  br label %17

17:                                               ; preds = %2, %_ZN6icu_776number4impl14SymbolsWrapper9doCleanupEv.exit
  ret ptr %0
}